target datalayout = "e-m:e-p270:32:32-p271:32:32-p272:64:64-i64:64-i128:128-f80:128-n8:16:32:64-S128"
target triple = "x86_64-pc-linux-gnu"

%struct.Kit_DsdNtk_t_ = type { i16, i16, i16, i16, ptr, ptr, ptr }

; Function Attrs: nounwind uwtable
define void @Kit_DsdNtkFree(ptr noundef %0) #0 {
  %2 = alloca ptr, align 8
  %3 = alloca ptr, align 8
  %4 = alloca i32, align 4
  store ptr %0, ptr %2, align 8, !tbaa !37
  call void @llvm.lifetime.start.p0(i64 8, ptr %3) #9
  call void @llvm.lifetime.start.p0(i64 4, ptr %4) #9
  store i32 0, ptr %4, align 4, !tbaa !3
  br label %5

5:                                                ; preds = %30, %1
  %6 = load i32, ptr %4, align 4, !tbaa !3
  %7 = load ptr, ptr %2, align 8, !tbaa !37
  %8 = getelementptr inbounds nuw %struct.Kit_DsdNtk_t_, ptr %7, i32 0, i32 2
  %9 = load i16, ptr %8, align 4, !tbaa !45
  %10 = zext i16 %9 to i32
  %11 = icmp ult i32 %6, %10
  br i1 %11, label %12, label %21

12:                                               ; preds = %5
  %13 = load ptr, ptr %2, align 8, !tbaa !37
  %14 = getelementptr inbounds nuw %struct.Kit_DsdNtk_t_, ptr %13, i32 0, i32 6
  %15 = load ptr, ptr %14, align 8, !tbaa !47
  %16 = load i32, ptr %4, align 4, !tbaa !3
  %17 = zext i32 %16 to i64
  %18 = getelementptr inbounds nuw ptr, ptr %15, i64 %17
  %19 = load ptr, ptr %18, align 8, !tbaa !39
  store ptr %19, ptr %3, align 8, !tbaa !39
  %20 = icmp ne ptr %19, null
  br label %21

21:                                               ; preds = %12, %5
  %22 = phi i1 [ false, %5 ], [ %20, %12 ]
  br i1 %22, label %23, label %33

23:                                               ; preds = %21
  %24 = load ptr, ptr %3, align 8, !tbaa !39
  %25 = icmp ne ptr %24, null
  br i1 %25, label %26, label %28

26:                                               ; preds = %23
  %27 = load ptr, ptr %3, align 8, !tbaa !39
  call void @free(ptr noundef %27) #9
  store ptr null, ptr %3, align 8, !tbaa !39
  br label %29

28:                                               ; preds = %23
  br label %29

29:                                               ; preds = %28, %26
  br label %30

30:                                               ; preds = %29
  %31 = load i32, ptr %4, align 4, !tbaa !3
  %32 = add i32 %31, 1
  store i32 %32, ptr %4, align 4, !tbaa !3
  br label %5, !llvm.loop !49

33:                                               ; preds = %21
  %34 = load ptr, ptr %2, align 8, !tbaa !37
  %35 = getelementptr inbounds nuw %struct.Kit_DsdNtk_t_, ptr %34, i32 0, i32 5
  %36 = load ptr, ptr %35, align 8, !tbaa !50
  %37 = icmp ne ptr %36, null
  br i1 %37, label %38, label %44

38:                                               ; preds = %33
  %39 = load ptr, ptr %2, align 8, !tbaa !37
  %40 = getelementptr inbounds nuw %struct.Kit_DsdNtk_t_, ptr %39, i32 0, i32 5
  %41 = load ptr, ptr %40, align 8, !tbaa !50
  call void @free(ptr noundef %41) #9
  %42 = load ptr, ptr %2, align 8, !tbaa !37
  %43 = getelementptr inbounds nuw %struct.Kit_DsdNtk_t_, ptr %42, i32 0, i32 5
  store ptr null, ptr %43, align 8, !tbaa !50
  br label %45

44:                                               ; preds = %33
  br label %45

45:                                               ; preds = %44, %38
  %46 = load ptr, ptr %2, align 8, !tbaa !37
  %47 = getelementptr inbounds nuw %struct.Kit_DsdNtk_t_, ptr %46, i32 0, i32 6
  %48 = load ptr, ptr %47, align 8, !tbaa !47
  %49 = icmp ne ptr %48, null
  br i1 %49, label %50, label %56

50:                                               ; preds = %45
  %51 = load ptr, ptr %2, align 8, !tbaa !37
  %52 = getelementptr inbounds nuw %struct.Kit_DsdNtk_t_, ptr %51, i32 0, i32 6
  %53 = load ptr, ptr %52, align 8, !tbaa !47
  call void @free(ptr noundef %53) #9
  %54 = load ptr, ptr %2, align 8, !tbaa !37
  %55 = getelementptr inbounds nuw %struct.Kit_DsdNtk_t_, ptr %54, i32 0, i32 6
  store ptr null, ptr %55, align 8, !tbaa !47
  br label %57

56:                                               ; preds = %45
  br label %57

57:                                               ; preds = %56, %50
  %58 = load ptr, ptr %2, align 8, !tbaa !37
  %59 = getelementptr inbounds nuw %struct.Kit_DsdNtk_t_, ptr %58, i32 0, i32 4
  %60 = load ptr, ptr %59, align 8, !tbaa !48
  %61 = icmp ne ptr %60, null
  br i1 %61, label %62, label %68

62:                                               ; preds = %57
  %63 = load ptr, ptr %2, align 8, !tbaa !37
  %64 = getelementptr inbounds nuw %struct.Kit_DsdNtk_t_, ptr %63, i32 0, i32 4
  %65 = load ptr, ptr %64, align 8, !tbaa !48
  call void @free(ptr noundef %65) #9
  %66 = load ptr, ptr %2, align 8, !tbaa !37
  %67 = getelementptr inbounds nuw %struct.Kit_DsdNtk_t_, ptr %66, i32 0, i32 4
  store ptr null, ptr %67, align 8, !tbaa !48
  br label %69

68:                                               ; preds = %57
  br label %69

69:                                               ; preds = %68, %62
  %70 = load ptr, ptr %2, align 8, !tbaa !37
  %71 = icmp ne ptr %70, null
  br i1 %71, label %72, label %74

72:                                               ; preds = %69
  %73 = load ptr, ptr %2, align 8, !tbaa !37
  call void @free(ptr noundef %73) #9
  store ptr null, ptr %2, align 8, !tbaa !37
  br label %75

74:                                               ; preds = %69
  br label %75

75:                                               ; preds = %74, %72
  call void @llvm.lifetime.end.p0(i64 4, ptr %4) #9
  call void @llvm.lifetime.end.p0(i64 8, ptr %3) #9
  ret void
}