; Function Attrs: nounwind uwtable
define void @Kit_DsdNtkFree(ptr noundef captures(none) %0) local_unnamed_addr #0 {
  %2 = getelementptr inbounds nuw i8, ptr %0, i64 24
  %3 = getelementptr inbounds nuw i8, ptr %0, i64 4
  %4 = load i16, ptr %3, align 4, !tbaa !38
  %.not28 = icmp eq i16 %4, 0
  br i1 %.not28, label %.critedge, label %.lr.ph

.lr.ph:                                           ; preds = %1, %8
  %indvars.iv = phi i64 [ %indvars.iv.next, %8 ], [ 0, %1 ]
  %5 = load ptr, ptr %2, align 8, !tbaa !40
  %6 = getelementptr inbounds nuw ptr, ptr %5, i64 %indvars.iv
  %7 = load ptr, ptr %6, align 8, !tbaa !41
  %.not = icmp eq ptr %7, null
  br i1 %.not, label %.critedge, label %8

8:                                                ; preds = %.lr.ph
  tail call void @free(ptr noundef nonnull %7) #27
  %indvars.iv.next = add nuw nsw i64 %indvars.iv, 1
  %9 = load i16, ptr %3, align 4, !tbaa !38
  %10 = zext i16 %9 to i64
  %11 = icmp samesign ult i64 %indvars.iv.next, %10
  br i1 %11, label %.lr.ph, label %.critedge, !llvm.loop !44

.critedge:                                        ; preds = %.lr.ph, %8, %1
  %12 = getelementptr inbounds nuw i8, ptr %0, i64 16
  %13 = load ptr, ptr %12, align 8, !tbaa !45
  %.not22 = icmp eq ptr %13, null
  br i1 %.not22, label %15, label %14

14:                                               ; preds = %.critedge
  tail call void @free(ptr noundef nonnull %13) #27
  store ptr null, ptr %12, align 8, !tbaa !45
  br label %15

15:                                               ; preds = %.critedge, %14
  %16 = load ptr, ptr %2, align 8, !tbaa !40
  %.not23 = icmp eq ptr %16, null
  br i1 %.not23, label %18, label %17

17:                                               ; preds = %15
  tail call void @free(ptr noundef nonnull %16) #27
  store ptr null, ptr %2, align 8, !tbaa !40
  br label %18

18:                                               ; preds = %15, %17
  %19 = getelementptr inbounds nuw i8, ptr %0, i64 8
  %20 = load ptr, ptr %19, align 8, !tbaa !43
  %.not24 = icmp eq ptr %20, null
  br i1 %.not24, label %22, label %21

21:                                               ; preds = %18
  tail call void @free(ptr noundef nonnull %20) #27
  br label %22

22:                                               ; preds = %18, %21
  tail call void @free(ptr noundef nonnull %0) #27
  ret void
}